target datalayout = "e-m:e-p270:32:32-p271:32:32-p272:64:64-i64:64-i128:128-f80:128-n8:16:32:64-S128"
target triple = "x86_64-pc-linux-gnu"

@s_Truths6 = internal global [6 x i64] [i64 -6148914691236517206, i64 -3689348814741910324, i64 -1085102592571150096, i64 -71777214294589696, i64 -281470681808896, i64 -4294967296], align 16

; Function Attrs: nounwind uwtable
define internal i32 @Abc_TtCofsOppositeWithMask(ptr noundef %0, ptr noundef %1, i32 noundef %2, i32 noundef %3) #0 {
  %5 = alloca i32, align 4
  %6 = alloca ptr, align 8
  %7 = alloca ptr, align 8
  %8 = alloca i32, align 4
  %9 = alloca i32, align 4
  %10 = alloca i32, align 4
  %11 = alloca i32, align 4
  %12 = alloca i32, align 4
  %13 = alloca i32, align 4
  %14 = alloca i32, align 4
  %15 = alloca ptr, align 8
  %16 = alloca ptr, align 8
  %17 = alloca ptr, align 8
  store ptr %0, ptr %6, align 8, !tbaa !8
  store ptr %1, ptr %7, align 8, !tbaa !8
  store i32 %2, ptr %8, align 4, !tbaa !10
  store i32 %3, ptr %9, align 4, !tbaa !10
  %18 = load i32, ptr %9, align 4, !tbaa !10
  %19 = icmp slt i32 %18, 6
  br i1 %19, label %20, label %72

20:                                               ; preds = %4
  call void @llvm.lifetime.start.p0(i64 4, ptr %10) #14
  call void @llvm.lifetime.start.p0(i64 4, ptr %11) #14
  %21 = load i32, ptr %9, align 4, !tbaa !10
  %22 = shl i32 1, %21
  store i32 %22, ptr %11, align 4, !tbaa !10
  store i32 0, ptr %10, align 4, !tbaa !10
  br label %23

23:                                               ; preds = %67, %20
  %24 = load i32, ptr %10, align 4, !tbaa !10
  %25 = load i32, ptr %8, align 4, !tbaa !10
  %26 = icmp slt i32 %24, %25
  br i1 %26, label %27, label %70

27:                                               ; preds = %23
  %28 = load ptr, ptr %6, align 8, !tbaa !8
  %29 = load i32, ptr %10, align 4, !tbaa !10
  %30 = sext i32 %29 to i64
  %31 = getelementptr inbounds i64, ptr %28, i64 %30
  %32 = load i64, ptr %31, align 8, !tbaa !37
  %33 = load i32, ptr %11, align 4, !tbaa !10
  %34 = zext i32 %33 to i64
  %35 = shl i64 %32, %34
  %36 = load i32, ptr %9, align 4, !tbaa !10
  %37 = sext i32 %36 to i64
  %38 = getelementptr inbounds [6 x i64], ptr @s_Truths6, i64 0, i64 %37
  %39 = load i64, ptr %38, align 8, !tbaa !37
  %40 = and i64 %35, %39
  %41 = load ptr, ptr %7, align 8, !tbaa !8
  %42 = load i32, ptr %10, align 4, !tbaa !10
  %43 = sext i32 %42 to i64
  %44 = getelementptr inbounds i64, ptr %41, i64 %43
  %45 = load i64, ptr %44, align 8, !tbaa !37
  %46 = and i64 %40, %45
  %47 = load ptr, ptr %6, align 8, !tbaa !8
  %48 = load i32, ptr %10, align 4, !tbaa !10
  %49 = sext i32 %48 to i64
  %50 = getelementptr inbounds i64, ptr %47, i64 %49
  %51 = load i64, ptr %50, align 8, !tbaa !37
  %52 = xor i64 %51, -1
  %53 = load i32, ptr %9, align 4, !tbaa !10
  %54 = sext i32 %53 to i64
  %55 = getelementptr inbounds [6 x i64], ptr @s_Truths6, i64 0, i64 %54
  %56 = load i64, ptr %55, align 8, !tbaa !37
  %57 = and i64 %52, %56
  %58 = load ptr, ptr %7, align 8, !tbaa !8
  %59 = load i32, ptr %10, align 4, !tbaa !10
  %60 = sext i32 %59 to i64
  %61 = getelementptr inbounds i64, ptr %58, i64 %60
  %62 = load i64, ptr %61, align 8, !tbaa !37
  %63 = and i64 %57, %62
  %64 = icmp ne i64 %46, %63
  br i1 %64, label %65, label %66

65:                                               ; preds = %27
  store i32 0, ptr %5, align 4
  store i32 1, ptr %12, align 4
  br label %71

66:                                               ; preds = %27
  br label %67

67:                                               ; preds = %66
  %68 = load i32, ptr %10, align 4, !tbaa !10
  %69 = add nsw i32 %68, 1
  store i32 %69, ptr %10, align 4, !tbaa !10
  br label %23, !llvm.loop !221

70:                                               ; preds = %23
  store i32 1, ptr %5, align 4
  store i32 1, ptr %12, align 4
  br label %71

71:                                               ; preds = %70, %65
  call void @llvm.lifetime.end.p0(i64 4, ptr %11) #14
  call void @llvm.lifetime.end.p0(i64 4, ptr %10) #14
  br label %139

72:                                               ; preds = %4
  call void @llvm.lifetime.start.p0(i64 4, ptr %13) #14
  call void @llvm.lifetime.start.p0(i64 4, ptr %14) #14
  %73 = load i32, ptr %9, align 4, !tbaa !10
  %74 = sub nsw i32 %73, 6
  %75 = shl i32 1, %74
  store i32 %75, ptr %14, align 4, !tbaa !10
  call void @llvm.lifetime.start.p0(i64 8, ptr %15) #14
  %76 = load ptr, ptr %6, align 8, !tbaa !8
  store ptr %76, ptr %15, align 8, !tbaa !8
  call void @llvm.lifetime.start.p0(i64 8, ptr %16) #14
  %77 = load ptr, ptr %7, align 8, !tbaa !8
  store ptr %77, ptr %16, align 8, !tbaa !8
  call void @llvm.lifetime.start.p0(i64 8, ptr %17) #14
  %78 = load ptr, ptr %6, align 8, !tbaa !8
  %79 = load i32, ptr %8, align 4, !tbaa !10
  %80 = sext i32 %79 to i64
  %81 = getelementptr inbounds i64, ptr %78, i64 %80
  store ptr %81, ptr %17, align 8, !tbaa !8
  br label %82

82:                                               ; preds = %126, %72
  %83 = load ptr, ptr %15, align 8, !tbaa !8
  %84 = load ptr, ptr %17, align 8, !tbaa !8
  %85 = icmp ult ptr %83, %84
  br i1 %85, label %86, label %137

86:                                               ; preds = %82
  store i32 0, ptr %13, align 4, !tbaa !10
  br label %87

87:                                               ; preds = %122, %86
  %88 = load i32, ptr %13, align 4, !tbaa !10
  %89 = load i32, ptr %14, align 4, !tbaa !10
  %90 = icmp slt i32 %88, %89
  br i1 %90, label %91, label %125

91:                                               ; preds = %87
  %92 = load ptr, ptr %15, align 8, !tbaa !8
  %93 = load i32, ptr %13, align 4, !tbaa !10
  %94 = sext i32 %93 to i64
  %95 = getelementptr inbounds i64, ptr %92, i64 %94
  %96 = load i64, ptr %95, align 8, !tbaa !37
  %97 = load ptr, ptr %16, align 8, !tbaa !8
  %98 = load i32, ptr %13, align 4, !tbaa !10
  %99 = sext i32 %98 to i64
  %100 = getelementptr inbounds i64, ptr %97, i64 %99
  %101 = load i64, ptr %100, align 8, !tbaa !37
  %102 = and i64 %96, %101
  %103 = load ptr, ptr %15, align 8, !tbaa !8
  %104 = load i32, ptr %13, align 4, !tbaa !10
  %105 = load i32, ptr %14, align 4, !tbaa !10
  %106 = add nsw i32 %104, %105
  %107 = sext i32 %106 to i64
  %108 = getelementptr inbounds i64, ptr %103, i64 %107
  %109 = load i64, ptr %108, align 8, !tbaa !37
  %110 = xor i64 %109, -1
  %111 = load ptr, ptr %16, align 8, !tbaa !8
  %112 = load i32, ptr %13, align 4, !tbaa !10
  %113 = load i32, ptr %14, align 4, !tbaa !10
  %114 = add nsw i32 %112, %113
  %115 = sext i32 %114 to i64
  %116 = getelementptr inbounds i64, ptr %111, i64 %115
  %117 = load i64, ptr %116, align 8, !tbaa !37
  %118 = and i64 %110, %117
  %119 = icmp ne i64 %102, %118
  br i1 %119, label %120, label %121

120:                                              ; preds = %91
  store i32 0, ptr %5, align 4
  store i32 1, ptr %12, align 4
  br label %138

121:                                              ; preds = %91
  br label %122

122:                                              ; preds = %121
  %123 = load i32, ptr %13, align 4, !tbaa !10
  %124 = add nsw i32 %123, 1
  store i32 %124, ptr %13, align 4, !tbaa !10
  br label %87, !llvm.loop !222

125:                                              ; preds = %87
  br label %126

126:                                              ; preds = %125
  %127 = load i32, ptr %14, align 4, !tbaa !10
  %128 = mul nsw i32 2, %127
  %129 = load ptr, ptr %15, align 8, !tbaa !8
  %130 = sext i32 %128 to i64
  %131 = getelementptr inbounds i64, ptr %129, i64 %130
  store ptr %131, ptr %15, align 8, !tbaa !8
  %132 = load i32, ptr %14, align 4, !tbaa !10
  %133 = mul nsw i32 2, %132
  %134 = load ptr, ptr %16, align 8, !tbaa !8
  %135 = sext i32 %133 to i64
  %136 = getelementptr inbounds i64, ptr %134, i64 %135
  store ptr %136, ptr %16, align 8, !tbaa !8
  br label %82, !llvm.loop !223

137:                                              ; preds = %82
  store i32 1, ptr %5, align 4
  store i32 1, ptr %12, align 4
  br label %138

138:                                              ; preds = %137, %120
  call void @llvm.lifetime.end.p0(i64 8, ptr %17) #14
  call void @llvm.lifetime.end.p0(i64 8, ptr %16) #14
  call void @llvm.lifetime.end.p0(i64 8, ptr %15) #14
  call void @llvm.lifetime.end.p0(i64 4, ptr %14) #14
  call void @llvm.lifetime.end.p0(i64 4, ptr %13) #14
  br label %139

139:                                              ; preds = %138, %71
  %140 = load i32, ptr %5, align 4
  ret i32 %140
}