; Function Attrs: nofree norecurse nosync nounwind memory(argmem: read) uwtable
define internal fastcc range(i32 0, 2) i32 @Abc_TtCofsOppositeWithMask(ptr noundef readonly %0, ptr noundef nonnull readonly captures(none) %1, i32 noundef %2, i32 noundef %3) unnamed_addr #20 {
  %5 = icmp slt i32 %3, 6
  br i1 %5, label %6, label %24

6:                                                ; preds = %4
  %7 = icmp sgt i32 %2, 0
  br i1 %7, label %.lr.ph, label %.loopexit

.lr.ph:                                           ; preds = %6
  %8 = shl nuw nsw i32 1, %3
  %9 = zext nneg i32 %8 to i64
  %10 = sext i32 %3 to i64
  %11 = getelementptr inbounds [6 x i64], ptr @s_Truths6, i64 0, i64 %10
  %12 = load i64, ptr %11, align 8, !tbaa !3
  %wide.trip.count64 = zext nneg i32 %2 to i64
  br label %14

13:                                               ; preds = %14
  %indvars.iv.next62 = add nuw nsw i64 %indvars.iv61, 1
  %exitcond65.not = icmp eq i64 %indvars.iv.next62, %wide.trip.count64
  br i1 %exitcond65.not, label %.loopexit, label %14, !llvm.loop !218

14:                                               ; preds = %.lr.ph, %13
  %indvars.iv61 = phi i64 [ 0, %.lr.ph ], [ %indvars.iv.next62, %13 ]
  %15 = getelementptr inbounds nuw i64, ptr %0, i64 %indvars.iv61
  %16 = load i64, ptr %15, align 8, !tbaa !3
  %17 = shl i64 %16, %9
  %18 = getelementptr inbounds nuw i64, ptr %1, i64 %indvars.iv61
  %19 = load i64, ptr %18, align 8, !tbaa !3
  %20 = xor i64 %16, %17
  %21 = xor i64 %20, -1
  %22 = and i64 %12, %21
  %23 = and i64 %22, %19
  %.not48 = icmp eq i64 %23, 0
  br i1 %.not48, label %13, label %.loopexit

24:                                               ; preds = %4
  %25 = add nsw i32 %3, -6
  %26 = shl nuw i32 1, %25
  %27 = sext i32 %2 to i64
  %28 = getelementptr inbounds i64, ptr %0, i64 %27
  %29 = icmp sgt i32 %2, 0
  br i1 %29, label %.preheader.lr.ph, label %.loopexit

.preheader.lr.ph:                                 ; preds = %24
  %.not = icmp eq i32 %25, 31
  %30 = shl i32 2, %25
  %31 = sext i32 %30 to i64
  br i1 %.not, label %.loopexit, label %.preheader.us.preheader

.preheader.us.preheader:                          ; preds = %.preheader.lr.ph
  %32 = sext i32 %26 to i64
  %smax = tail call i32 @llvm.smax.i32(i32 %26, i32 1)
  %wide.trip.count = zext nneg i32 %smax to i64
  br label %.preheader.us

.preheader.us:                                    ; preds = %.preheader.us.preheader, %._crit_edge.us
  %.04053.us = phi ptr [ %48, %._crit_edge.us ], [ %1, %.preheader.us.preheader ]
  %.04152.us = phi ptr [ %47, %._crit_edge.us ], [ %0, %.preheader.us.preheader ]
  br label %34

33:                                               ; preds = %34
  %indvars.iv.next = add nuw nsw i64 %indvars.iv, 1
  %exitcond.not = icmp eq i64 %indvars.iv.next, %wide.trip.count
  br i1 %exitcond.not, label %._crit_edge.us, label %34, !llvm.loop !219

34:                                               ; preds = %.preheader.us, %33
  %indvars.iv = phi i64 [ 0, %.preheader.us ], [ %indvars.iv.next, %33 ]
  %35 = getelementptr inbounds nuw i64, ptr %.04152.us, i64 %indvars.iv
  %36 = load i64, ptr %35, align 8, !tbaa !3
  %37 = getelementptr inbounds nuw i64, ptr %.04053.us, i64 %indvars.iv
  %38 = load i64, ptr %37, align 8, !tbaa !3
  %39 = and i64 %38, %36
  %40 = add nuw nsw i64 %indvars.iv, %32
  %41 = getelementptr inbounds i64, ptr %.04152.us, i64 %40
  %42 = load i64, ptr %41, align 8, !tbaa !3
  %43 = xor i64 %42, -1
  %44 = getelementptr inbounds i64, ptr %.04053.us, i64 %40
  %45 = load i64, ptr %44, align 8, !tbaa !3
  %46 = and i64 %45, %43
  %.not.us = icmp eq i64 %39, %46
  br i1 %.not.us, label %33, label %.loopexit

._crit_edge.us:                                   ; preds = %33
  %47 = getelementptr inbounds i64, ptr %.04152.us, i64 %31
  %48 = getelementptr inbounds i64, ptr %.04053.us, i64 %31
  %49 = icmp ult ptr %47, %28
  br i1 %49, label %.preheader.us, label %.loopexit, !llvm.loop !220

.loopexit:                                        ; preds = %._crit_edge.us, %34, %13, %14, %.preheader.lr.ph, %24, %6
  %.1 = phi i32 [ 1, %6 ], [ 1, %24 ], [ 1, %.preheader.lr.ph ], [ 1, %13 ], [ 0, %14 ], [ 0, %34 ], [ 1, %._crit_edge.us ]
  ret i32 %.1
}